target datalayout = "e-m:e-p270:32:32-p271:32:32-p272:64:64-i64:64-i128:128-f80:128-n8:16:32:64-S128"
target triple = "x86_64-pc-linux-gnu"

; Function Attrs: inlinehint nounwind willreturn memory(none) uwtable
define internal i32 @mid_pred(i32 noundef %0, i32 noundef %1, i32 noundef %2) #8 {
  %4 = alloca i32, align 4
  %5 = alloca i32, align 4
  %6 = alloca i32, align 4
  store i32 %0, ptr %4, align 4, !tbaa !11
  store i32 %1, ptr %5, align 4, !tbaa !11
  store i32 %2, ptr %6, align 4, !tbaa !11
  %7 = load i32, ptr %4, align 4, !tbaa !11
  %8 = load i32, ptr %5, align 4, !tbaa !11
  %9 = icmp sgt i32 %7, %8
  br i1 %9, label %10, label %24

10:                                               ; preds = %3
  %11 = load i32, ptr %6, align 4, !tbaa !11
  %12 = load i32, ptr %5, align 4, !tbaa !11
  %13 = icmp sgt i32 %11, %12
  br i1 %13, label %14, label %23

14:                                               ; preds = %10
  %15 = load i32, ptr %6, align 4, !tbaa !11
  %16 = load i32, ptr %4, align 4, !tbaa !11
  %17 = icmp sgt i32 %15, %16
  br i1 %17, label %18, label %20

18:                                               ; preds = %14
  %19 = load i32, ptr %4, align 4, !tbaa !11
  store i32 %19, ptr %5, align 4, !tbaa !11
  br label %22

20:                                               ; preds = %14
  %21 = load i32, ptr %6, align 4, !tbaa !11
  store i32 %21, ptr %5, align 4, !tbaa !11
  br label %22

22:                                               ; preds = %20, %18
  br label %23

23:                                               ; preds = %22, %10
  br label %38

24:                                               ; preds = %3
  %25 = load i32, ptr %5, align 4, !tbaa !11
  %26 = load i32, ptr %6, align 4, !tbaa !11
  %27 = icmp sgt i32 %25, %26
  br i1 %27, label %28, label %37

28:                                               ; preds = %24
  %29 = load i32, ptr %6, align 4, !tbaa !11
  %30 = load i32, ptr %4, align 4, !tbaa !11
  %31 = icmp sgt i32 %29, %30
  br i1 %31, label %32, label %34

32:                                               ; preds = %28
  %33 = load i32, ptr %6, align 4, !tbaa !11
  store i32 %33, ptr %5, align 4, !tbaa !11
  br label %36

34:                                               ; preds = %28
  %35 = load i32, ptr %4, align 4, !tbaa !11
  store i32 %35, ptr %5, align 4, !tbaa !11
  br label %36

36:                                               ; preds = %34, %32
  br label %37

37:                                               ; preds = %36, %24
  br label %38

38:                                               ; preds = %37, %23
  %39 = load i32, ptr %5, align 4, !tbaa !11
  ret i32 %39
}

; Function Attrs: inlinehint nounwind uwtable
define internal i32 @pix_median_abs8_c(ptr noundef %0, ptr noundef %1, ptr noundef %2, i64 noundef %3, i32 noundef %4) #5 {
  %6 = alloca ptr, align 8
  %7 = alloca ptr, align 8
  %8 = alloca ptr, align 8
  %9 = alloca i64, align 8
  %10 = alloca i32, align 4
  %11 = alloca i32, align 4
  %12 = alloca i32, align 4
  %13 = alloca i32, align 4
  store ptr %0, ptr %6, align 8, !tbaa !22
  store ptr %1, ptr %7, align 8, !tbaa !24
  store ptr %2, ptr %8, align 8, !tbaa !24
  store i64 %3, ptr %9, align 8, !tbaa !26
  store i32 %4, ptr %10, align 4, !tbaa !11
  call void @llvm.lifetime.start.p0(i64 4, ptr %11) #9
  store i32 0, ptr %11, align 4, !tbaa !11
  call void @llvm.lifetime.start.p0(i64 4, ptr %12) #9
  call void @llvm.lifetime.start.p0(i64 4, ptr %13) #9
  %14 = load ptr, ptr %7, align 8, !tbaa !24
  %15 = getelementptr inbounds i8, ptr %14, i64 0
  %16 = load i8, ptr %15, align 1, !tbaa !36
  %17 = zext i8 %16 to i32
  %18 = load ptr, ptr %8, align 8, !tbaa !24
  %19 = getelementptr inbounds i8, ptr %18, i64 0
  %20 = load i8, ptr %19, align 1, !tbaa !36
  %21 = zext i8 %20 to i32
  %22 = sub nsw i32 %17, %21
  %23 = call i32 @llvm.abs.i32(i32 %22, i1 true)
  %24 = load i32, ptr %11, align 4, !tbaa !11
  %25 = add nsw i32 %24, %23
  store i32 %25, ptr %11, align 4, !tbaa !11
  %26 = load ptr, ptr %7, align 8, !tbaa !24
  %27 = getelementptr inbounds i8, ptr %26, i64 1
  %28 = load i8, ptr %27, align 1, !tbaa !36
  %29 = zext i8 %28 to i32
  %30 = load ptr, ptr %8, align 8, !tbaa !24
  %31 = getelementptr inbounds i8, ptr %30, i64 1
  %32 = load i8, ptr %31, align 1, !tbaa !36
  %33 = zext i8 %32 to i32
  %34 = sub nsw i32 %29, %33
  %35 = load ptr, ptr %7, align 8, !tbaa !24
  %36 = getelementptr inbounds i8, ptr %35, i64 0
  %37 = load i8, ptr %36, align 1, !tbaa !36
  %38 = zext i8 %37 to i32
  %39 = load ptr, ptr %8, align 8, !tbaa !24
  %40 = getelementptr inbounds i8, ptr %39, i64 0
  %41 = load i8, ptr %40, align 1, !tbaa !36
  %42 = zext i8 %41 to i32
  %43 = sub nsw i32 %38, %42
  %44 = sub nsw i32 %34, %43
  %45 = call i32 @llvm.abs.i32(i32 %44, i1 true)
  %46 = load i32, ptr %11, align 4, !tbaa !11
  %47 = add nsw i32 %46, %45
  store i32 %47, ptr %11, align 4, !tbaa !11
  %48 = load ptr, ptr %7, align 8, !tbaa !24
  %49 = getelementptr inbounds i8, ptr %48, i64 2
  %50 = load i8, ptr %49, align 1, !tbaa !36
  %51 = zext i8 %50 to i32
  %52 = load ptr, ptr %8, align 8, !tbaa !24
  %53 = getelementptr inbounds i8, ptr %52, i64 2
  %54 = load i8, ptr %53, align 1, !tbaa !36
  %55 = zext i8 %54 to i32
  %56 = sub nsw i32 %51, %55
  %57 = load ptr, ptr %7, align 8, !tbaa !24
  %58 = getelementptr inbounds i8, ptr %57, i64 1
  %59 = load i8, ptr %58, align 1, !tbaa !36
  %60 = zext i8 %59 to i32
  %61 = load ptr, ptr %8, align 8, !tbaa !24
  %62 = getelementptr inbounds i8, ptr %61, i64 1
  %63 = load i8, ptr %62, align 1, !tbaa !36
  %64 = zext i8 %63 to i32
  %65 = sub nsw i32 %60, %64
  %66 = sub nsw i32 %56, %65
  %67 = call i32 @llvm.abs.i32(i32 %66, i1 true)
  %68 = load i32, ptr %11, align 4, !tbaa !11
  %69 = add nsw i32 %68, %67
  store i32 %69, ptr %11, align 4, !tbaa !11
  %70 = load ptr, ptr %7, align 8, !tbaa !24
  %71 = getelementptr inbounds i8, ptr %70, i64 3
  %72 = load i8, ptr %71, align 1, !tbaa !36
  %73 = zext i8 %72 to i32
  %74 = load ptr, ptr %8, align 8, !tbaa !24
  %75 = getelementptr inbounds i8, ptr %74, i64 3
  %76 = load i8, ptr %75, align 1, !tbaa !36
  %77 = zext i8 %76 to i32
  %78 = sub nsw i32 %73, %77
  %79 = load ptr, ptr %7, align 8, !tbaa !24
  %80 = getelementptr inbounds i8, ptr %79, i64 2
  %81 = load i8, ptr %80, align 1, !tbaa !36
  %82 = zext i8 %81 to i32
  %83 = load ptr, ptr %8, align 8, !tbaa !24
  %84 = getelementptr inbounds i8, ptr %83, i64 2
  %85 = load i8, ptr %84, align 1, !tbaa !36
  %86 = zext i8 %85 to i32
  %87 = sub nsw i32 %82, %86
  %88 = sub nsw i32 %78, %87
  %89 = call i32 @llvm.abs.i32(i32 %88, i1 true)
  %90 = load i32, ptr %11, align 4, !tbaa !11
  %91 = add nsw i32 %90, %89
  store i32 %91, ptr %11, align 4, !tbaa !11
  %92 = load ptr, ptr %7, align 8, !tbaa !24
  %93 = getelementptr inbounds i8, ptr %92, i64 4
  %94 = load i8, ptr %93, align 1, !tbaa !36
  %95 = zext i8 %94 to i32
  %96 = load ptr, ptr %8, align 8, !tbaa !24
  %97 = getelementptr inbounds i8, ptr %96, i64 4
  %98 = load i8, ptr %97, align 1, !tbaa !36
  %99 = zext i8 %98 to i32
  %100 = sub nsw i32 %95, %99
  %101 = load ptr, ptr %7, align 8, !tbaa !24
  %102 = getelementptr inbounds i8, ptr %101, i64 3
  %103 = load i8, ptr %102, align 1, !tbaa !36
  %104 = zext i8 %103 to i32
  %105 = load ptr, ptr %8, align 8, !tbaa !24
  %106 = getelementptr inbounds i8, ptr %105, i64 3
  %107 = load i8, ptr %106, align 1, !tbaa !36
  %108 = zext i8 %107 to i32
  %109 = sub nsw i32 %104, %108
  %110 = sub nsw i32 %100, %109
  %111 = call i32 @llvm.abs.i32(i32 %110, i1 true)
  %112 = load i32, ptr %11, align 4, !tbaa !11
  %113 = add nsw i32 %112, %111
  store i32 %113, ptr %11, align 4, !tbaa !11
  %114 = load ptr, ptr %7, align 8, !tbaa !24
  %115 = getelementptr inbounds i8, ptr %114, i64 5
  %116 = load i8, ptr %115, align 1, !tbaa !36
  %117 = zext i8 %116 to i32
  %118 = load ptr, ptr %8, align 8, !tbaa !24
  %119 = getelementptr inbounds i8, ptr %118, i64 5
  %120 = load i8, ptr %119, align 1, !tbaa !36
  %121 = zext i8 %120 to i32
  %122 = sub nsw i32 %117, %121
  %123 = load ptr, ptr %7, align 8, !tbaa !24
  %124 = getelementptr inbounds i8, ptr %123, i64 4
  %125 = load i8, ptr %124, align 1, !tbaa !36
  %126 = zext i8 %125 to i32
  %127 = load ptr, ptr %8, align 8, !tbaa !24
  %128 = getelementptr inbounds i8, ptr %127, i64 4
  %129 = load i8, ptr %128, align 1, !tbaa !36
  %130 = zext i8 %129 to i32
  %131 = sub nsw i32 %126, %130
  %132 = sub nsw i32 %122, %131
  %133 = call i32 @llvm.abs.i32(i32 %132, i1 true)
  %134 = load i32, ptr %11, align 4, !tbaa !11
  %135 = add nsw i32 %134, %133
  store i32 %135, ptr %11, align 4, !tbaa !11
  %136 = load ptr, ptr %7, align 8, !tbaa !24
  %137 = getelementptr inbounds i8, ptr %136, i64 6
  %138 = load i8, ptr %137, align 1, !tbaa !36
  %139 = zext i8 %138 to i32
  %140 = load ptr, ptr %8, align 8, !tbaa !24
  %141 = getelementptr inbounds i8, ptr %140, i64 6
  %142 = load i8, ptr %141, align 1, !tbaa !36
  %143 = zext i8 %142 to i32
  %144 = sub nsw i32 %139, %143
  %145 = load ptr, ptr %7, align 8, !tbaa !24
  %146 = getelementptr inbounds i8, ptr %145, i64 5
  %147 = load i8, ptr %146, align 1, !tbaa !36
  %148 = zext i8 %147 to i32
  %149 = load ptr, ptr %8, align 8, !tbaa !24
  %150 = getelementptr inbounds i8, ptr %149, i64 5
  %151 = load i8, ptr %150, align 1, !tbaa !36
  %152 = zext i8 %151 to i32
  %153 = sub nsw i32 %148, %152
  %154 = sub nsw i32 %144, %153
  %155 = call i32 @llvm.abs.i32(i32 %154, i1 true)
  %156 = load i32, ptr %11, align 4, !tbaa !11
  %157 = add nsw i32 %156, %155
  store i32 %157, ptr %11, align 4, !tbaa !11
  %158 = load ptr, ptr %7, align 8, !tbaa !24
  %159 = getelementptr inbounds i8, ptr %158, i64 7
  %160 = load i8, ptr %159, align 1, !tbaa !36
  %161 = zext i8 %160 to i32
  %162 = load ptr, ptr %8, align 8, !tbaa !24
  %163 = getelementptr inbounds i8, ptr %162, i64 7
  %164 = load i8, ptr %163, align 1, !tbaa !36
  %165 = zext i8 %164 to i32
  %166 = sub nsw i32 %161, %165
  %167 = load ptr, ptr %7, align 8, !tbaa !24
  %168 = getelementptr inbounds i8, ptr %167, i64 6
  %169 = load i8, ptr %168, align 1, !tbaa !36
  %170 = zext i8 %169 to i32
  %171 = load ptr, ptr %8, align 8, !tbaa !24
  %172 = getelementptr inbounds i8, ptr %171, i64 6
  %173 = load i8, ptr %172, align 1, !tbaa !36
  %174 = zext i8 %173 to i32
  %175 = sub nsw i32 %170, %174
  %176 = sub nsw i32 %166, %175
  %177 = call i32 @llvm.abs.i32(i32 %176, i1 true)
  %178 = load i32, ptr %11, align 4, !tbaa !11
  %179 = add nsw i32 %178, %177
  store i32 %179, ptr %11, align 4, !tbaa !11
  %180 = load i64, ptr %9, align 8, !tbaa !26
  %181 = load ptr, ptr %7, align 8, !tbaa !24
  %182 = getelementptr inbounds i8, ptr %181, i64 %180
  store ptr %182, ptr %7, align 8, !tbaa !24
  %183 = load i64, ptr %9, align 8, !tbaa !26
  %184 = load ptr, ptr %8, align 8, !tbaa !24
  %185 = getelementptr inbounds i8, ptr %184, i64 %183
  store ptr %185, ptr %8, align 8, !tbaa !24
  store i32 1, ptr %12, align 4, !tbaa !11
  br label %186

186:                                              ; preds = %334, %5
  %187 = load i32, ptr %12, align 4, !tbaa !11
  %188 = load i32, ptr %10, align 4, !tbaa !11
  %189 = icmp slt i32 %187, %188
  br i1 %189, label %190, label %337

190:                                              ; preds = %186
  %191 = load ptr, ptr %7, align 8, !tbaa !24
  %192 = getelementptr inbounds i8, ptr %191, i64 0
  %193 = load i8, ptr %192, align 1, !tbaa !36
  %194 = zext i8 %193 to i32
  %195 = load ptr, ptr %8, align 8, !tbaa !24
  %196 = getelementptr inbounds i8, ptr %195, i64 0
  %197 = load i8, ptr %196, align 1, !tbaa !36
  %198 = zext i8 %197 to i32
  %199 = sub nsw i32 %194, %198
  %200 = load ptr, ptr %7, align 8, !tbaa !24
  %201 = load i64, ptr %9, align 8, !tbaa !26
  %202 = sub nsw i64 0, %201
  %203 = getelementptr inbounds i8, ptr %200, i64 %202
  %204 = load i8, ptr %203, align 1, !tbaa !36
  %205 = zext i8 %204 to i32
  %206 = load ptr, ptr %8, align 8, !tbaa !24
  %207 = load i64, ptr %9, align 8, !tbaa !26
  %208 = sub nsw i64 0, %207
  %209 = getelementptr inbounds i8, ptr %206, i64 %208
  %210 = load i8, ptr %209, align 1, !tbaa !36
  %211 = zext i8 %210 to i32
  %212 = sub nsw i32 %205, %211
  %213 = sub nsw i32 %199, %212
  %214 = call i32 @llvm.abs.i32(i32 %213, i1 true)
  %215 = load i32, ptr %11, align 4, !tbaa !11
  %216 = add nsw i32 %215, %214
  store i32 %216, ptr %11, align 4, !tbaa !11
  store i32 1, ptr %13, align 4, !tbaa !11
  br label %217

217:                                              ; preds = %324, %190
  %218 = load i32, ptr %13, align 4, !tbaa !11
  %219 = icmp slt i32 %218, 8
  br i1 %219, label %220, label %327

220:                                              ; preds = %217
  %221 = load ptr, ptr %7, align 8, !tbaa !24
  %222 = load i32, ptr %13, align 4, !tbaa !11
  %223 = sext i32 %222 to i64
  %224 = getelementptr inbounds i8, ptr %221, i64 %223
  %225 = load i8, ptr %224, align 1, !tbaa !36
  %226 = zext i8 %225 to i32
  %227 = load ptr, ptr %8, align 8, !tbaa !24
  %228 = load i32, ptr %13, align 4, !tbaa !11
  %229 = sext i32 %228 to i64
  %230 = getelementptr inbounds i8, ptr %227, i64 %229
  %231 = load i8, ptr %230, align 1, !tbaa !36
  %232 = zext i8 %231 to i32
  %233 = sub nsw i32 %226, %232
  %234 = load ptr, ptr %7, align 8, !tbaa !24
  %235 = load i32, ptr %13, align 4, !tbaa !11
  %236 = sext i32 %235 to i64
  %237 = load i64, ptr %9, align 8, !tbaa !26
  %238 = sub nsw i64 %236, %237
  %239 = getelementptr inbounds i8, ptr %234, i64 %238
  %240 = load i8, ptr %239, align 1, !tbaa !36
  %241 = zext i8 %240 to i32
  %242 = load ptr, ptr %8, align 8, !tbaa !24
  %243 = load i32, ptr %13, align 4, !tbaa !11
  %244 = sext i32 %243 to i64
  %245 = load i64, ptr %9, align 8, !tbaa !26
  %246 = sub nsw i64 %244, %245
  %247 = getelementptr inbounds i8, ptr %242, i64 %246
  %248 = load i8, ptr %247, align 1, !tbaa !36
  %249 = zext i8 %248 to i32
  %250 = sub nsw i32 %241, %249
  %251 = load ptr, ptr %7, align 8, !tbaa !24
  %252 = load i32, ptr %13, align 4, !tbaa !11
  %253 = sub nsw i32 %252, 1
  %254 = sext i32 %253 to i64
  %255 = getelementptr inbounds i8, ptr %251, i64 %254
  %256 = load i8, ptr %255, align 1, !tbaa !36
  %257 = zext i8 %256 to i32
  %258 = load ptr, ptr %8, align 8, !tbaa !24
  %259 = load i32, ptr %13, align 4, !tbaa !11
  %260 = sub nsw i32 %259, 1
  %261 = sext i32 %260 to i64
  %262 = getelementptr inbounds i8, ptr %258, i64 %261
  %263 = load i8, ptr %262, align 1, !tbaa !36
  %264 = zext i8 %263 to i32
  %265 = sub nsw i32 %257, %264
  %266 = load ptr, ptr %7, align 8, !tbaa !24
  %267 = load i32, ptr %13, align 4, !tbaa !11
  %268 = sext i32 %267 to i64
  %269 = load i64, ptr %9, align 8, !tbaa !26
  %270 = sub nsw i64 %268, %269
  %271 = getelementptr inbounds i8, ptr %266, i64 %270
  %272 = load i8, ptr %271, align 1, !tbaa !36
  %273 = zext i8 %272 to i32
  %274 = load ptr, ptr %8, align 8, !tbaa !24
  %275 = load i32, ptr %13, align 4, !tbaa !11
  %276 = sext i32 %275 to i64
  %277 = load i64, ptr %9, align 8, !tbaa !26
  %278 = sub nsw i64 %276, %277
  %279 = getelementptr inbounds i8, ptr %274, i64 %278
  %280 = load i8, ptr %279, align 1, !tbaa !36
  %281 = zext i8 %280 to i32
  %282 = sub nsw i32 %273, %281
  %283 = load ptr, ptr %7, align 8, !tbaa !24
  %284 = load i32, ptr %13, align 4, !tbaa !11
  %285 = sub nsw i32 %284, 1
  %286 = sext i32 %285 to i64
  %287 = getelementptr inbounds i8, ptr %283, i64 %286
  %288 = load i8, ptr %287, align 1, !tbaa !36
  %289 = zext i8 %288 to i32
  %290 = load ptr, ptr %8, align 8, !tbaa !24
  %291 = load i32, ptr %13, align 4, !tbaa !11
  %292 = sub nsw i32 %291, 1
  %293 = sext i32 %292 to i64
  %294 = getelementptr inbounds i8, ptr %290, i64 %293
  %295 = load i8, ptr %294, align 1, !tbaa !36
  %296 = zext i8 %295 to i32
  %297 = sub nsw i32 %289, %296
  %298 = add nsw i32 %282, %297
  %299 = load ptr, ptr %7, align 8, !tbaa !24
  %300 = load i32, ptr %13, align 4, !tbaa !11
  %301 = sext i32 %300 to i64
  %302 = load i64, ptr %9, align 8, !tbaa !26
  %303 = sub nsw i64 %301, %302
  %304 = sub nsw i64 %303, 1
  %305 = getelementptr inbounds i8, ptr %299, i64 %304
  %306 = load i8, ptr %305, align 1, !tbaa !36
  %307 = zext i8 %306 to i32
  %308 = load ptr, ptr %8, align 8, !tbaa !24
  %309 = load i32, ptr %13, align 4, !tbaa !11
  %310 = sext i32 %309 to i64
  %311 = load i64, ptr %9, align 8, !tbaa !26
  %312 = sub nsw i64 %310, %311
  %313 = sub nsw i64 %312, 1
  %314 = getelementptr inbounds i8, ptr %308, i64 %313
  %315 = load i8, ptr %314, align 1, !tbaa !36
  %316 = zext i8 %315 to i32
  %317 = sub nsw i32 %307, %316
  %318 = sub nsw i32 %298, %317
  %319 = call i32 @mid_pred(i32 noundef %250, i32 noundef %265, i32 noundef %318) #10
  %320 = sub nsw i32 %233, %319
  %321 = call i32 @llvm.abs.i32(i32 %320, i1 true)
  %322 = load i32, ptr %11, align 4, !tbaa !11
  %323 = add nsw i32 %322, %321
  store i32 %323, ptr %11, align 4, !tbaa !11
  br label %324

324:                                              ; preds = %220
  %325 = load i32, ptr %13, align 4, !tbaa !11
  %326 = add nsw i32 %325, 1
  store i32 %326, ptr %13, align 4, !tbaa !11
  br label %217, !llvm.loop !141

327:                                              ; preds = %217
  %328 = load i64, ptr %9, align 8, !tbaa !26
  %329 = load ptr, ptr %7, align 8, !tbaa !24
  %330 = getelementptr inbounds i8, ptr %329, i64 %328
  store ptr %330, ptr %7, align 8, !tbaa !24
  %331 = load i64, ptr %9, align 8, !tbaa !26
  %332 = load ptr, ptr %8, align 8, !tbaa !24
  %333 = getelementptr inbounds i8, ptr %332, i64 %331
  store ptr %333, ptr %8, align 8, !tbaa !24
  br label %334

334:                                              ; preds = %327
  %335 = load i32, ptr %12, align 4, !tbaa !11
  %336 = add nsw i32 %335, 1
  store i32 %336, ptr %12, align 4, !tbaa !11
  br label %186, !llvm.loop !142

337:                                              ; preds = %186
  %338 = load i32, ptr %11, align 4, !tbaa !11
  call void @llvm.lifetime.end.p0(i64 4, ptr %13) #9
  call void @llvm.lifetime.end.p0(i64 4, ptr %12) #9
  call void @llvm.lifetime.end.p0(i64 4, ptr %11) #9
  ret i32 %338
}