; Function Attrs: inlinehint nofree norecurse nosync nounwind memory(argmem: read) uwtable
define internal i32 @pix_median_abs8_c(ptr readnone captures(none) %0, ptr noundef readonly captures(none) %1, ptr noundef readonly captures(none) %2, i64 noundef %3, i32 noundef %4) #6 {
  %6 = load i8, ptr %1, align 1, !tbaa !20
  %7 = zext i8 %6 to i32
  %8 = load i8, ptr %2, align 1, !tbaa !20
  %9 = zext i8 %8 to i32
  %10 = sub nsw i32 %7, %9
  %11 = tail call i32 @llvm.abs.i32(i32 %10, i1 true)
  %12 = getelementptr inbounds nuw i8, ptr %1, i64 1
  %13 = load i8, ptr %12, align 1, !tbaa !20
  %14 = zext i8 %13 to i32
  %15 = getelementptr inbounds nuw i8, ptr %2, i64 1
  %16 = load i8, ptr %15, align 1, !tbaa !20
  %17 = zext i8 %16 to i32
  %18 = sub nsw i32 %14, %17
  %19 = sub nsw i32 %18, %10
  %20 = tail call i32 @llvm.abs.i32(i32 %19, i1 true)
  %21 = add nuw nsw i32 %20, %11
  %22 = getelementptr inbounds nuw i8, ptr %1, i64 2
  %23 = load i8, ptr %22, align 1, !tbaa !20
  %24 = zext i8 %23 to i32
  %25 = getelementptr inbounds nuw i8, ptr %2, i64 2
  %26 = load i8, ptr %25, align 1, !tbaa !20
  %27 = zext i8 %26 to i32
  %28 = sub nsw i32 %24, %27
  %29 = sub nsw i32 %28, %18
  %30 = tail call i32 @llvm.abs.i32(i32 %29, i1 true)
  %31 = add nuw nsw i32 %21, %30
  %32 = getelementptr inbounds nuw i8, ptr %1, i64 3
  %33 = load i8, ptr %32, align 1, !tbaa !20
  %34 = zext i8 %33 to i32
  %35 = getelementptr inbounds nuw i8, ptr %2, i64 3
  %36 = load i8, ptr %35, align 1, !tbaa !20
  %37 = zext i8 %36 to i32
  %38 = sub nsw i32 %34, %37
  %39 = sub nsw i32 %38, %28
  %40 = tail call i32 @llvm.abs.i32(i32 %39, i1 true)
  %41 = add nuw nsw i32 %31, %40
  %42 = getelementptr inbounds nuw i8, ptr %1, i64 4
  %43 = load i8, ptr %42, align 1, !tbaa !20
  %44 = zext i8 %43 to i32
  %45 = getelementptr inbounds nuw i8, ptr %2, i64 4
  %46 = load i8, ptr %45, align 1, !tbaa !20
  %47 = zext i8 %46 to i32
  %48 = sub nsw i32 %44, %47
  %49 = sub nsw i32 %48, %38
  %50 = tail call i32 @llvm.abs.i32(i32 %49, i1 true)
  %51 = add nuw nsw i32 %41, %50
  %52 = getelementptr inbounds nuw i8, ptr %1, i64 5
  %53 = load i8, ptr %52, align 1, !tbaa !20
  %54 = zext i8 %53 to i32
  %55 = getelementptr inbounds nuw i8, ptr %2, i64 5
  %56 = load i8, ptr %55, align 1, !tbaa !20
  %57 = zext i8 %56 to i32
  %58 = sub nsw i32 %54, %57
  %59 = sub nsw i32 %58, %48
  %60 = tail call i32 @llvm.abs.i32(i32 %59, i1 true)
  %61 = add nuw nsw i32 %51, %60
  %62 = getelementptr inbounds nuw i8, ptr %1, i64 6
  %63 = load i8, ptr %62, align 1, !tbaa !20
  %64 = zext i8 %63 to i32
  %65 = getelementptr inbounds nuw i8, ptr %2, i64 6
  %66 = load i8, ptr %65, align 1, !tbaa !20
  %67 = zext i8 %66 to i32
  %68 = sub nsw i32 %64, %67
  %69 = sub nsw i32 %68, %58
  %70 = tail call i32 @llvm.abs.i32(i32 %69, i1 true)
  %71 = add nuw nsw i32 %61, %70
  %72 = getelementptr inbounds nuw i8, ptr %1, i64 7
  %73 = load i8, ptr %72, align 1, !tbaa !20
  %74 = zext i8 %73 to i32
  %75 = getelementptr inbounds nuw i8, ptr %2, i64 7
  %76 = load i8, ptr %75, align 1, !tbaa !20
  %77 = zext i8 %76 to i32
  %78 = add nsw i32 %68, %77
  %79 = sub nsw i32 %74, %78
  %80 = tail call i32 @llvm.abs.i32(i32 %79, i1 true)
  %81 = add nuw nsw i32 %71, %80
  %82 = icmp sgt i32 %4, 1
  br i1 %82, label %.lr.ph, label %._crit_edge

.lr.ph:                                           ; preds = %5
  %83 = xor i64 %3, -1
  br label %84

84:                                               ; preds = %.lr.ph, %137
  %85 = phi i8 [ %8, %.lr.ph ], [ %89, %137 ]
  %86 = phi i8 [ %6, %.lr.ph ], [ %87, %137 ]
  %.089109 = phi i32 [ 1, %.lr.ph ], [ %138, %137 ]
  %.090108 = phi i32 [ %81, %.lr.ph ], [ %136, %137 ]
  %.pn93107 = phi ptr [ %1, %.lr.ph ], [ %.091110, %137 ]
  %.pn106 = phi ptr [ %2, %.lr.ph ], [ %.092111, %137 ]
  %.091110 = getelementptr inbounds i8, ptr %.pn93107, i64 %3
  %.092111 = getelementptr inbounds i8, ptr %.pn106, i64 %3
  %87 = load i8, ptr %.091110, align 1, !tbaa !20
  %88 = zext i8 %87 to i32
  %89 = load i8, ptr %.092111, align 1, !tbaa !20
  %90 = zext i8 %89 to i32
  %91 = zext i8 %86 to i32
  %92 = zext i8 %85 to i32
  %93 = add nuw nsw i32 %90, %91
  %94 = sub nsw i32 %88, %93
  %95 = add nsw i32 %94, %92
  %96 = tail call i32 @llvm.abs.i32(i32 %95, i1 true)
  %97 = add nsw i32 %96, %.090108
  br label %98

98:                                               ; preds = %84, %mid_pred.exit
  %99 = phi i8 [ %89, %84 ], [ %105, %mid_pred.exit ]
  %100 = phi i8 [ %87, %84 ], [ %102, %mid_pred.exit ]
  %indvars.iv = phi i64 [ 1, %84 ], [ %indvars.iv.next, %mid_pred.exit ]
  %.1102 = phi i32 [ %97, %84 ], [ %136, %mid_pred.exit ]
  %101 = getelementptr inbounds nuw i8, ptr %.091110, i64 %indvars.iv
  %102 = load i8, ptr %101, align 1, !tbaa !20
  %103 = zext i8 %102 to i32
  %104 = getelementptr inbounds nuw i8, ptr %.092111, i64 %indvars.iv
  %105 = load i8, ptr %104, align 1, !tbaa !20
  %106 = zext i8 %105 to i32
  %107 = getelementptr inbounds nuw i8, ptr %.pn93107, i64 %indvars.iv
  %108 = load i8, ptr %107, align 1, !tbaa !20
  %109 = zext i8 %108 to i32
  %110 = getelementptr inbounds nuw i8, ptr %.pn106, i64 %indvars.iv
  %111 = load i8, ptr %110, align 1, !tbaa !20
  %112 = zext i8 %111 to i32
  %113 = sub nsw i32 %109, %112
  %114 = zext i8 %100 to i32
  %115 = zext i8 %99 to i32
  %116 = sub nsw i32 %114, %115
  %117 = add nsw i32 %116, %113
  %118 = add i64 %indvars.iv, %83
  %119 = getelementptr inbounds i8, ptr %.091110, i64 %118
  %120 = load i8, ptr %119, align 1, !tbaa !20
  %121 = zext i8 %120 to i32
  %122 = getelementptr inbounds i8, ptr %.092111, i64 %118
  %123 = load i8, ptr %122, align 1, !tbaa !20
  %124 = zext i8 %123 to i32
  %.neg94 = sub nsw i32 %124, %121
  %125 = add nsw i32 %117, %.neg94
  %126 = icmp sgt i32 %113, %116
  br i1 %126, label %127, label %130

127:                                              ; preds = %98
  %128 = icmp sgt i32 %125, %116
  br i1 %128, label %129, label %mid_pred.exit

129:                                              ; preds = %127
  %..i = tail call i32 @llvm.smin.i32(i32 range(i32 -765, 766) %125, i32 range(i32 -255, 256) %113)
  br label %mid_pred.exit

130:                                              ; preds = %98
  %131 = icmp sgt i32 %116, %125
  br i1 %131, label %132, label %mid_pred.exit

132:                                              ; preds = %130
  %.20.i = tail call i32 @llvm.smax.i32(i32 range(i32 -765, 766) %125, i32 range(i32 -255, 256) %113)
  br label %mid_pred.exit

mid_pred.exit:                                    ; preds = %127, %129, %130, %132
  %.0.i = phi i32 [ %116, %127 ], [ %116, %130 ], [ %..i, %129 ], [ %.20.i, %132 ]
  %133 = add nsw i32 %.0.i, %106
  %134 = sub nsw i32 %103, %133
  %135 = tail call i32 @llvm.abs.i32(i32 %134, i1 true)
  %136 = add nsw i32 %135, %.1102
  %indvars.iv.next = add nuw nsw i64 %indvars.iv, 1
  %exitcond.not = icmp eq i64 %indvars.iv.next, 8
  br i1 %exitcond.not, label %137, label %98, !llvm.loop !128

137:                                              ; preds = %mid_pred.exit
  %138 = add nuw nsw i32 %.089109, 1
  %exitcond113.not = icmp eq i32 %138, %4
  br i1 %exitcond113.not, label %._crit_edge, label %84, !llvm.loop !129

._crit_edge:                                      ; preds = %137, %5
  %.090.lcssa = phi i32 [ %81, %5 ], [ %136, %137 ]
  ret i32 %.090.lcssa
}